target datalayout = "e-m:e-p270:32:32-p271:32:32-p272:64:64-i64:64-i128:128-f80:128-n8:16:32:64-S128"
target triple = "x86_64-pc-linux-gnu"

%struct.If_DsdMan_t_ = type { ptr, i32, i32, i32, i32, ptr, ptr, %struct.Vec_Ptr_t_, %struct.Vec_Int_t_, %struct.Vec_Int_t_, ptr, ptr, ptr, [16 x ptr], [16 x ptr], [16 x ptr], [16 x ptr], i32, i32, ptr, ptr, ptr, ptr, ptr, i32, i32, i32, i32, i64, i64, i64, i64, i64 }
%struct.Vec_Ptr_t_ = type { i32, i32, ptr }
%struct.Vec_Int_t_ = type { i32, i32, ptr }
%struct.If_DsdObj_t_ = type { i32, i32, [0 x i32] }
%struct.Vec_Mem_t_ = type { i32, i32, i32, i32, i32, i32, ptr, ptr, ptr }

; Function Attrs: inlinehint nounwind uwtable
define internal ptr @Vec_MemReadEntry(ptr noundef %0, i32 noundef %1) #1 {
  %3 = alloca ptr, align 8
  %4 = alloca i32, align 4
  store ptr %0, ptr %3, align 8, !tbaa !57
  store i32 %1, ptr %4, align 4, !tbaa !27
  %5 = load ptr, ptr %3, align 8, !tbaa !57
  %6 = getelementptr inbounds nuw %struct.Vec_Mem_t_, ptr %5, i32 0, i32 6
  %7 = load ptr, ptr %6, align 8, !tbaa !84
  %8 = load i32, ptr %4, align 4, !tbaa !27
  %9 = load ptr, ptr %3, align 8, !tbaa !57
  %10 = getelementptr inbounds nuw %struct.Vec_Mem_t_, ptr %9, i32 0, i32 2
  %11 = load i32, ptr %10, align 8, !tbaa !69
  %12 = ashr i32 %8, %11
  %13 = sext i32 %12 to i64
  %14 = getelementptr inbounds ptr, ptr %7, i64 %13
  %15 = load ptr, ptr %14, align 8, !tbaa !76
  %16 = load ptr, ptr %3, align 8, !tbaa !57
  %17 = getelementptr inbounds nuw %struct.Vec_Mem_t_, ptr %16, i32 0, i32 0
  %18 = load i32, ptr %17, align 8, !tbaa !67
  %19 = load i32, ptr %4, align 4, !tbaa !27
  %20 = load ptr, ptr %3, align 8, !tbaa !57
  %21 = getelementptr inbounds nuw %struct.Vec_Mem_t_, ptr %20, i32 0, i32 3
  %22 = load i32, ptr %21, align 4, !tbaa !70
  %23 = and i32 %19, %22
  %24 = mul nsw i32 %18, %23
  %25 = sext i32 %24 to i64
  %26 = getelementptr inbounds i64, ptr %15, i64 %25
  ret ptr %26
}

; Function Attrs: inlinehint nounwind uwtable
define internal i32 @If_DsdObjTruthId(ptr noundef %0, ptr noundef %1) #1 {
  %3 = alloca ptr, align 8
  %4 = alloca ptr, align 8
  store ptr %0, ptr %3, align 8, !tbaa !3
  store ptr %1, ptr %4, align 8, !tbaa !40
  %5 = load ptr, ptr %4, align 8, !tbaa !40
  %6 = getelementptr inbounds nuw %struct.If_DsdObj_t_, ptr %5, i32 0, i32 1
  %7 = load i32, ptr %6, align 4
  %8 = and i32 %7, 7
  %9 = icmp eq i32 %8, 6
  br i1 %9, label %10, label %23

10:                                               ; preds = %2
  %11 = load ptr, ptr %4, align 8, !tbaa !40
  %12 = getelementptr inbounds nuw %struct.If_DsdObj_t_, ptr %11, i32 0, i32 1
  %13 = load i32, ptr %12, align 4
  %14 = lshr i32 %13, 27
  %15 = icmp sgt i32 %14, 2
  br i1 %15, label %16, label %23

16:                                               ; preds = %10
  %17 = load ptr, ptr %3, align 8, !tbaa !3
  %18 = getelementptr inbounds nuw %struct.If_DsdMan_t_, ptr %17, i32 0, i32 9
  %19 = load ptr, ptr %4, align 8, !tbaa !40
  %20 = getelementptr inbounds nuw %struct.If_DsdObj_t_, ptr %19, i32 0, i32 0
  %21 = load i32, ptr %20, align 4, !tbaa !42
  %22 = call i32 @Vec_IntEntry(ptr noundef %18, i32 noundef %21)
  br label %24

23:                                               ; preds = %10, %2
  br label %24

24:                                               ; preds = %23, %16
  %25 = phi i32 [ %22, %16 ], [ -1, %23 ]
  ret i32 %25
}

; Function Attrs: inlinehint nounwind uwtable
define internal i32 @Abc_Var2Lit(i32 noundef %0, i32 noundef %1) #1 {
  %3 = alloca i32, align 4
  %4 = alloca i32, align 4
  store i32 %0, ptr %3, align 4, !tbaa !27
  store i32 %1, ptr %4, align 4, !tbaa !27
  %5 = load i32, ptr %3, align 4, !tbaa !27
  %6 = load i32, ptr %3, align 4, !tbaa !27
  %7 = add nsw i32 %5, %6
  %8 = load i32, ptr %4, align 4, !tbaa !27
  %9 = add nsw i32 %7, %8
  ret i32 %9
}

; Function Attrs: inlinehint nounwind uwtable
define internal i32 @Abc_LitIsCompl(i32 noundef %0) #1 {
  %2 = alloca i32, align 4
  store i32 %0, ptr %2, align 4, !tbaa !27
  %3 = load i32, ptr %2, align 4, !tbaa !27
  %4 = and i32 %3, 1
  ret i32 %4
}

; Function Attrs: inlinehint nounwind uwtable
define internal ptr @Vec_PtrEntry(ptr noundef %0, i32 noundef %1) #1 {
  %3 = alloca ptr, align 8
  %4 = alloca i32, align 4
  store ptr %0, ptr %3, align 8, !tbaa !22
  store i32 %1, ptr %4, align 4, !tbaa !27
  %5 = load ptr, ptr %3, align 8, !tbaa !22
  %6 = getelementptr inbounds nuw %struct.Vec_Ptr_t_, ptr %5, i32 0, i32 2
  %7 = load ptr, ptr %6, align 8, !tbaa !46
  %8 = load i32, ptr %4, align 4, !tbaa !27
  %9 = sext i32 %8 to i64
  %10 = getelementptr inbounds ptr, ptr %7, i64 %9
  %11 = load ptr, ptr %10, align 8, !tbaa !44
  ret ptr %11
}

; Function Attrs: inlinehint nounwind uwtable
define internal void @Vec_IntWriteEntry(ptr noundef %0, i32 noundef %1, i32 noundef %2) #1 {
  %4 = alloca ptr, align 8
  %5 = alloca i32, align 4
  %6 = alloca i32, align 4
  store ptr %0, ptr %4, align 8, !tbaa !47
  store i32 %1, ptr %5, align 4, !tbaa !27
  store i32 %2, ptr %6, align 4, !tbaa !27
  %7 = load i32, ptr %6, align 4, !tbaa !27
  %8 = load ptr, ptr %4, align 8, !tbaa !47
  %9 = getelementptr inbounds nuw %struct.Vec_Int_t_, ptr %8, i32 0, i32 2
  %10 = load ptr, ptr %9, align 8, !tbaa !50
  %11 = load i32, ptr %5, align 4, !tbaa !27
  %12 = sext i32 %11 to i64
  %13 = getelementptr inbounds i32, ptr %10, i64 %12
  store i32 %7, ptr %13, align 4, !tbaa !27
  ret void
}

; Function Attrs: inlinehint nounwind uwtable
define internal void @If_DsdVecObjSetMark(ptr noundef %0, i32 noundef %1) #1 {
  %3 = alloca ptr, align 8
  %4 = alloca i32, align 4
  store ptr %0, ptr %3, align 8, !tbaa !22
  store i32 %1, ptr %4, align 4, !tbaa !27
  %5 = load ptr, ptr %3, align 8, !tbaa !22
  %6 = load i32, ptr %4, align 4, !tbaa !27
  %7 = call ptr @If_DsdVecObj(ptr noundef %5, i32 noundef %6)
  %8 = getelementptr inbounds nuw %struct.If_DsdObj_t_, ptr %7, i32 0, i32 1
  %9 = load i32, ptr %8, align 4
  %10 = and i32 %9, -257
  %11 = or i32 %10, 256
  store i32 %11, ptr %8, align 4
  ret void
}

; Function Attrs: inlinehint nounwind uwtable
define internal ptr @If_DsdObjTruth(ptr noundef %0, ptr noundef %1) #1 {
  %3 = alloca ptr, align 8
  %4 = alloca ptr, align 8
  store ptr %0, ptr %3, align 8, !tbaa !3
  store ptr %1, ptr %4, align 8, !tbaa !40
  %5 = load ptr, ptr %3, align 8, !tbaa !3
  %6 = getelementptr inbounds nuw %struct.If_DsdMan_t_, ptr %5, i32 0, i32 13
  %7 = load ptr, ptr %4, align 8, !tbaa !40
  %8 = getelementptr inbounds nuw %struct.If_DsdObj_t_, ptr %7, i32 0, i32 1
  %9 = load i32, ptr %8, align 4
  %10 = lshr i32 %9, 27
  %11 = zext i32 %10 to i64
  %12 = getelementptr inbounds nuw [16 x ptr], ptr %6, i64 0, i64 %11
  %13 = load ptr, ptr %12, align 8, !tbaa !57
  %14 = load ptr, ptr %3, align 8, !tbaa !3
  %15 = load ptr, ptr %4, align 8, !tbaa !40
  %16 = call i32 @If_DsdObjTruthId(ptr noundef %14, ptr noundef %15)
  %17 = call ptr @Vec_MemReadEntry(ptr noundef %13, i32 noundef %16)
  ret ptr %17
}

; Function Attrs: inlinehint nounwind uwtable
define internal i32 @Abc_Lit2LitV(ptr noundef %0, i32 noundef %1) #1 {
  %3 = alloca ptr, align 8
  %4 = alloca i32, align 4
  store ptr %0, ptr %3, align 8, !tbaa !60
  store i32 %1, ptr %4, align 4, !tbaa !27
  %5 = load ptr, ptr %3, align 8, !tbaa !60
  %6 = load i32, ptr %4, align 4, !tbaa !27
  %7 = call i32 @Abc_Lit2Var(i32 noundef %6)
  %8 = sext i32 %7 to i64
  %9 = getelementptr inbounds i32, ptr %5, i64 %8
  %10 = load i32, ptr %9, align 4, !tbaa !27
  %11 = load i32, ptr %4, align 4, !tbaa !27
  %12 = call i32 @Abc_LitIsCompl(i32 noundef %11)
  %13 = call i32 @Abc_Var2Lit(i32 noundef %10, i32 noundef %12)
  ret i32 %13
}

; Function Attrs: inlinehint nounwind uwtable
define internal ptr @Vec_IntArray(ptr noundef %0) #1 {
  %2 = alloca ptr, align 8
  store ptr %0, ptr %2, align 8, !tbaa !47
  %3 = load ptr, ptr %2, align 8, !tbaa !47
  %4 = getelementptr inbounds nuw %struct.Vec_Int_t_, ptr %3, i32 0, i32 2
  %5 = load ptr, ptr %4, align 8, !tbaa !50
  ret ptr %5
}

; Function Attrs: inlinehint nounwind uwtable
define internal i32 @Abc_Lit2Var(i32 noundef %0) #1 {
  %2 = alloca i32, align 4
  store i32 %0, ptr %2, align 4, !tbaa !27
  %3 = load i32, ptr %2, align 4, !tbaa !27
  %4 = ashr i32 %3, 1
  ret i32 %4
}

; Function Attrs: inlinehint nounwind uwtable
define internal i32 @If_DsdObjFaninLit(ptr noundef %0, i32 noundef %1) #1 {
  %3 = alloca ptr, align 8
  %4 = alloca i32, align 4
  store ptr %0, ptr %3, align 8, !tbaa !40
  store i32 %1, ptr %4, align 4, !tbaa !27
  %5 = load ptr, ptr %3, align 8, !tbaa !40
  %6 = getelementptr inbounds nuw %struct.If_DsdObj_t_, ptr %5, i32 0, i32 2
  %7 = load i32, ptr %4, align 4, !tbaa !27
  %8 = sext i32 %7 to i64
  %9 = getelementptr inbounds [0 x i32], ptr %6, i64 0, i64 %8
  %10 = load i32, ptr %9, align 4, !tbaa !27
  ret i32 %10
}

; Function Attrs: inlinehint nounwind uwtable
define internal i32 @If_DsdObjFaninNum(ptr noundef %0) #1 {
  %2 = alloca ptr, align 8
  store ptr %0, ptr %2, align 8, !tbaa !40
  %3 = load ptr, ptr %2, align 8, !tbaa !40
  %4 = getelementptr inbounds nuw %struct.If_DsdObj_t_, ptr %3, i32 0, i32 1
  %5 = load i32, ptr %4, align 4
  %6 = lshr i32 %5, 27
  ret i32 %6
}

; Function Attrs: inlinehint nounwind uwtable
define internal ptr @If_DsdVecObj(ptr noundef %0, i32 noundef %1) #1 {
  %3 = alloca ptr, align 8
  %4 = alloca i32, align 4
  store ptr %0, ptr %3, align 8, !tbaa !22
  store i32 %1, ptr %4, align 4, !tbaa !27
  %5 = load ptr, ptr %3, align 8, !tbaa !22
  %6 = load i32, ptr %4, align 4, !tbaa !27
  %7 = call ptr @Vec_PtrEntry(ptr noundef %5, i32 noundef %6)
  ret ptr %7
}

; Function Attrs: inlinehint nounwind uwtable
define internal i32 @Vec_IntEntry(ptr noundef %0, i32 noundef %1) #1 {
  %3 = alloca ptr, align 8
  %4 = alloca i32, align 4
  store ptr %0, ptr %3, align 8, !tbaa !47
  store i32 %1, ptr %4, align 4, !tbaa !27
  %5 = load ptr, ptr %3, align 8, !tbaa !47
  %6 = getelementptr inbounds nuw %struct.Vec_Int_t_, ptr %5, i32 0, i32 2
  %7 = load ptr, ptr %6, align 8, !tbaa !50
  %8 = load i32, ptr %4, align 4, !tbaa !27
  %9 = sext i32 %8 to i64
  %10 = getelementptr inbounds i32, ptr %7, i64 %9
  %11 = load i32, ptr %10, align 4, !tbaa !27
  ret i32 %11
}

; Function Attrs: nounwind uwtable
define void @If_DsdManFilter_rec(ptr noundef %0, ptr noundef %1, i32 noundef %2, ptr noundef %3) #0 {
  %5 = alloca ptr, align 8
  %6 = alloca ptr, align 8
  %7 = alloca i32, align 4
  %8 = alloca ptr, align 8
  %9 = alloca ptr, align 8
  %10 = alloca [12 x i32], align 16
  %11 = alloca i32, align 4
  %12 = alloca i32, align 4
  %13 = alloca i32, align 4
  %14 = alloca i32, align 4
  store ptr %0, ptr %5, align 8, !tbaa !3
  store ptr %1, ptr %6, align 8, !tbaa !3
  store i32 %2, ptr %7, align 4, !tbaa !27
  store ptr %3, ptr %8, align 8, !tbaa !47
  call void @llvm.lifetime.start.p0(i64 8, ptr %9) #15
  call void @llvm.lifetime.start.p0(i64 48, ptr %10) #15
  call void @llvm.lifetime.start.p0(i64 4, ptr %11) #15
  call void @llvm.lifetime.start.p0(i64 4, ptr %12) #15
  call void @llvm.lifetime.start.p0(i64 4, ptr %13) #15
  %15 = load ptr, ptr %8, align 8, !tbaa !47
  %16 = load i32, ptr %7, align 4, !tbaa !27
  %17 = call i32 @Vec_IntEntry(ptr noundef %15, i32 noundef %16)
  %18 = icmp sge i32 %17, 0
  br i1 %18, label %19, label %20

19:                                               ; preds = %4
  store i32 1, ptr %14, align 4
  br label %123

20:                                               ; preds = %4
  %21 = load ptr, ptr %6, align 8, !tbaa !3
  %22 = getelementptr inbounds nuw %struct.If_DsdMan_t_, ptr %21, i32 0, i32 7
  %23 = load i32, ptr %7, align 4, !tbaa !27
  %24 = call ptr @If_DsdVecObj(ptr noundef %22, i32 noundef %23)
  store ptr %24, ptr %9, align 8, !tbaa !40
  store i32 0, ptr %11, align 4, !tbaa !27
  br label %25

25:                                               ; preds = %43, %20
  %26 = load i32, ptr %11, align 4, !tbaa !27
  %27 = load ptr, ptr %9, align 8, !tbaa !40
  %28 = call i32 @If_DsdObjFaninNum(ptr noundef %27)
  %29 = icmp slt i32 %26, %28
  br i1 %29, label %30, label %35

30:                                               ; preds = %25
  %31 = load ptr, ptr %9, align 8, !tbaa !40
  %32 = load i32, ptr %11, align 4, !tbaa !27
  %33 = call i32 @If_DsdObjFaninLit(ptr noundef %31, i32 noundef %32)
  store i32 %33, ptr %12, align 4, !tbaa !27
  %34 = icmp ne i32 %33, 0
  br label %35

35:                                               ; preds = %30, %25
  %36 = phi i1 [ false, %25 ], [ %34, %30 ]
  br i1 %36, label %37, label %46

37:                                               ; preds = %35
  %38 = load ptr, ptr %5, align 8, !tbaa !3
  %39 = load ptr, ptr %6, align 8, !tbaa !3
  %40 = load i32, ptr %12, align 4, !tbaa !27
  %41 = call i32 @Abc_Lit2Var(i32 noundef %40)
  %42 = load ptr, ptr %8, align 8, !tbaa !47
  call void @If_DsdManFilter_rec(ptr noundef %38, ptr noundef %39, i32 noundef %41, ptr noundef %42)
  br label %43

43:                                               ; preds = %37
  %44 = load i32, ptr %11, align 4, !tbaa !27
  %45 = add nsw i32 %44, 1
  store i32 %45, ptr %11, align 4, !tbaa !27
  br label %25, !llvm.loop !188

46:                                               ; preds = %35
  store i32 0, ptr %11, align 4, !tbaa !27
  br label %47

47:                                               ; preds = %67, %46
  %48 = load i32, ptr %11, align 4, !tbaa !27
  %49 = load ptr, ptr %9, align 8, !tbaa !40
  %50 = call i32 @If_DsdObjFaninNum(ptr noundef %49)
  %51 = icmp slt i32 %48, %50
  br i1 %51, label %52, label %57

52:                                               ; preds = %47
  %53 = load ptr, ptr %9, align 8, !tbaa !40
  %54 = load i32, ptr %11, align 4, !tbaa !27
  %55 = call i32 @If_DsdObjFaninLit(ptr noundef %53, i32 noundef %54)
  store i32 %55, ptr %12, align 4, !tbaa !27
  %56 = icmp ne i32 %55, 0
  br label %57

57:                                               ; preds = %52, %47
  %58 = phi i1 [ false, %47 ], [ %56, %52 ]
  br i1 %58, label %59, label %70

59:                                               ; preds = %57
  %60 = load ptr, ptr %8, align 8, !tbaa !47
  %61 = call ptr @Vec_IntArray(ptr noundef %60)
  %62 = load i32, ptr %12, align 4, !tbaa !27
  %63 = call i32 @Abc_Lit2LitV(ptr noundef %61, i32 noundef %62)
  %64 = load i32, ptr %11, align 4, !tbaa !27
  %65 = sext i32 %64 to i64
  %66 = getelementptr inbounds [12 x i32], ptr %10, i64 0, i64 %65
  store i32 %63, ptr %66, align 4, !tbaa !27
  br label %67

67:                                               ; preds = %59
  %68 = load i32, ptr %11, align 4, !tbaa !27
  %69 = add nsw i32 %68, 1
  store i32 %69, ptr %11, align 4, !tbaa !27
  br label %47, !llvm.loop !189

70:                                               ; preds = %57
  %71 = load ptr, ptr %5, align 8, !tbaa !3
  %72 = load ptr, ptr %9, align 8, !tbaa !40
  %73 = getelementptr inbounds nuw %struct.If_DsdObj_t_, ptr %72, i32 0, i32 1
  %74 = load i32, ptr %73, align 4
  %75 = and i32 %74, 7
  %76 = getelementptr inbounds [12 x i32], ptr %10, i64 0, i64 0
  %77 = load ptr, ptr %9, align 8, !tbaa !40
  %78 = getelementptr inbounds nuw %struct.If_DsdObj_t_, ptr %77, i32 0, i32 1
  %79 = load i32, ptr %78, align 4
  %80 = lshr i32 %79, 27
  %81 = load ptr, ptr %9, align 8, !tbaa !40
  %82 = getelementptr inbounds nuw %struct.If_DsdObj_t_, ptr %81, i32 0, i32 1
  %83 = load i32, ptr %82, align 4
  %84 = and i32 %83, 7
  %85 = icmp eq i32 %84, 6
  br i1 %85, label %86, label %90

86:                                               ; preds = %70
  %87 = load ptr, ptr %6, align 8, !tbaa !3
  %88 = load ptr, ptr %9, align 8, !tbaa !40
  %89 = call ptr @If_DsdObjTruth(ptr noundef %87, ptr noundef %88)
  br label %91

90:                                               ; preds = %70
  br label %91

91:                                               ; preds = %90, %86
  %92 = phi ptr [ %89, %86 ], [ null, %90 ]
  %93 = call i32 @If_DsdObjFindOrAdd(ptr noundef %71, i32 noundef %75, ptr noundef %76, i32 noundef %80, ptr noundef %92)
  store i32 %93, ptr %13, align 4, !tbaa !27
  %94 = load ptr, ptr %9, align 8, !tbaa !40
  %95 = getelementptr inbounds nuw %struct.If_DsdObj_t_, ptr %94, i32 0, i32 1
  %96 = load i32, ptr %95, align 4
  %97 = lshr i32 %96, 8
  %98 = and i32 %97, 1
  %99 = icmp ne i32 %98, 0
  br i1 %99, label %100, label %104

100:                                              ; preds = %91
  %101 = load ptr, ptr %5, align 8, !tbaa !3
  %102 = getelementptr inbounds nuw %struct.If_DsdMan_t_, ptr %101, i32 0, i32 7
  %103 = load i32, ptr %13, align 4, !tbaa !27
  call void @If_DsdVecObjSetMark(ptr noundef %102, i32 noundef %103)
  br label %104

104:                                              ; preds = %100, %91
  %105 = load ptr, ptr %9, align 8, !tbaa !40
  %106 = getelementptr inbounds nuw %struct.If_DsdObj_t_, ptr %105, i32 0, i32 1
  %107 = load i32, ptr %106, align 4
  %108 = lshr i32 %107, 9
  %109 = and i32 %108, 262143
  %110 = load ptr, ptr %5, align 8, !tbaa !3
  %111 = getelementptr inbounds nuw %struct.If_DsdMan_t_, ptr %110, i32 0, i32 7
  %112 = load i32, ptr %13, align 4, !tbaa !27
  %113 = call ptr @If_DsdVecObj(ptr noundef %111, i32 noundef %112)
  %114 = getelementptr inbounds nuw %struct.If_DsdObj_t_, ptr %113, i32 0, i32 1
  %115 = load i32, ptr %114, align 4
  %116 = and i32 %109, 262143
  %117 = shl i32 %116, 9
  %118 = and i32 %115, -134217217
  %119 = or i32 %118, %117
  store i32 %119, ptr %114, align 4
  %120 = load ptr, ptr %8, align 8, !tbaa !47
  %121 = load i32, ptr %7, align 4, !tbaa !27
  %122 = load i32, ptr %13, align 4, !tbaa !27
  call void @Vec_IntWriteEntry(ptr noundef %120, i32 noundef %121, i32 noundef %122)
  store i32 0, ptr %14, align 4
  br label %123

123:                                              ; preds = %104, %19
  call void @llvm.lifetime.end.p0(i64 4, ptr %13) #15
  call void @llvm.lifetime.end.p0(i64 4, ptr %12) #15
  call void @llvm.lifetime.end.p0(i64 4, ptr %11) #15
  call void @llvm.lifetime.end.p0(i64 48, ptr %10) #15
  call void @llvm.lifetime.end.p0(i64 8, ptr %9) #15
  %124 = load i32, ptr %14, align 4
  switch i32 %124, label %126 [
    i32 0, label %125
    i32 1, label %125
  ]

125:                                              ; preds = %123, %123
  ret void

126:                                              ; preds = %123
  unreachable
}