; Function Attrs: nounwind uwtable
define void @If_DsdManFilter_rec(ptr noundef %0, ptr noundef readonly captures(none) %1, i32 noundef %2, ptr noundef readonly captures(none) %3) local_unnamed_addr #4 {
  %5 = alloca [12 x i32], align 16
  call void @llvm.lifetime.start.p0(i64 48, ptr nonnull %5) #39
  %6 = getelementptr i8, ptr %3, i64 8
  %.val43 = load ptr, ptr %6, align 8, !tbaa !39
  %7 = sext i32 %2 to i64
  %8 = getelementptr inbounds i32, ptr %.val43, i64 %7
  %9 = load i32, ptr %8, align 4, !tbaa !40
  %10 = icmp sgt i32 %9, -1
  br i1 %10, label %90, label %11

11:                                               ; preds = %4
  %12 = getelementptr i8, ptr %1, i64 48
  %.val42 = load ptr, ptr %12, align 8, !tbaa !23
  %13 = getelementptr inbounds ptr, ptr %.val42, i64 %7
  %14 = load ptr, ptr %13, align 8, !tbaa !24
  %15 = getelementptr inbounds nuw i8, ptr %14, i64 8
  %16 = getelementptr i8, ptr %14, i64 4
  %.val4550 = load i32, ptr %16, align 4
  %17 = lshr i32 %.val4550, 27
  %.not60 = icmp ult i32 %.val4550, 134217728
  br i1 %.not60, label %.critedge, label %.lr.ph.preheader

.lr.ph.preheader:                                 ; preds = %11
  %18 = load i32, ptr %15, align 4, !tbaa !40
  %.not67 = icmp eq i32 %18, 0
  br i1 %.not67, label %.critedge, label %.lr.ph69

.lr.ph:                                           ; preds = %.lr.ph69
  %19 = getelementptr inbounds nuw [0 x i32], ptr %15, i64 0, i64 %indvars.iv.next
  %20 = load i32, ptr %19, align 4, !tbaa !40
  %.not = icmp eq i32 %20, 0
  br i1 %.not, label %.critedge, label %.lr.ph69, !llvm.loop !190

.lr.ph69:                                         ; preds = %.lr.ph.preheader, %.lr.ph
  %21 = phi i32 [ %20, %.lr.ph ], [ %18, %.lr.ph.preheader ]
  %indvars.iv68 = phi i64 [ %indvars.iv.next, %.lr.ph ], [ 0, %.lr.ph.preheader ]
  %22 = ashr i32 %21, 1
  tail call void @If_DsdManFilter_rec(ptr noundef %0, ptr noundef %1, i32 noundef %22, ptr noundef %3)
  %indvars.iv.next = add nuw nsw i64 %indvars.iv68, 1
  %.val45 = load i32, ptr %16, align 4
  %23 = lshr i32 %.val45, 27
  %24 = zext nneg i32 %23 to i64
  %25 = icmp samesign ult i64 %indvars.iv.next, %24
  br i1 %25, label %.lr.ph, label %.critedge, !llvm.loop !190

.critedge:                                        ; preds = %.lr.ph69, %.lr.ph, %.lr.ph.preheader, %11
  %.val45.lcssa = phi i32 [ %.val4550, %11 ], [ %.val4550, %.lr.ph.preheader ], [ %.val45, %.lr.ph ], [ %.val45, %.lr.ph69 ]
  %.lcssa = phi i32 [ %17, %11 ], [ %17, %.lr.ph.preheader ], [ %23, %.lr.ph ], [ %23, %.lr.ph69 ]
  %.not61 = icmp eq i32 %.lcssa, 0
  br i1 %.not61, label %.critedge2, label %.lr.ph58.preheader

.lr.ph58.preheader:                               ; preds = %.critedge
  %wide.trip.count = zext nneg i32 %.lcssa to i64
  br label %.lr.ph58

.lr.ph58:                                         ; preds = %.lr.ph58.preheader, %28
  %indvars.iv63 = phi i64 [ 0, %.lr.ph58.preheader ], [ %indvars.iv.next64, %28 ]
  %26 = getelementptr inbounds nuw [0 x i32], ptr %15, i64 0, i64 %indvars.iv63
  %27 = load i32, ptr %26, align 4, !tbaa !40
  %.not40 = icmp eq i32 %27, 0
  br i1 %.not40, label %.critedge2, label %28

28:                                               ; preds = %.lr.ph58
  %.val47 = load ptr, ptr %6, align 8, !tbaa !39
  %29 = ashr i32 %27, 1
  %30 = sext i32 %29 to i64
  %31 = getelementptr inbounds i32, ptr %.val47, i64 %30
  %32 = load i32, ptr %31, align 4, !tbaa !40
  %33 = and i32 %27, 1
  %34 = shl nsw i32 %32, 1
  %35 = or disjoint i32 %34, %33
  %36 = getelementptr inbounds nuw [12 x i32], ptr %5, i64 0, i64 %indvars.iv63
  store i32 %35, ptr %36, align 4, !tbaa !40
  %indvars.iv.next64 = add nuw nsw i64 %indvars.iv63, 1
  %exitcond.not = icmp eq i64 %indvars.iv.next64, %wide.trip.count
  br i1 %exitcond.not, label %.critedge2, label %.lr.ph58, !llvm.loop !191

.critedge2:                                       ; preds = %.lr.ph58, %28, %.critedge
  %37 = and i32 %.val45.lcssa, 7
  %38 = icmp eq i32 %37, 6
  br i1 %38, label %.split, label %.critedge2.split

.critedge2.split:                                 ; preds = %.critedge2
  %39 = call i32 @If_DsdObjFindOrAdd(ptr noundef %0, i32 noundef %37, ptr noundef nonnull %5, i32 noundef %.lcssa, ptr noundef null)
  br label %68

.split:                                           ; preds = %.critedge2
  %40 = getelementptr inbounds nuw i8, ptr %1, i64 112
  %41 = zext nneg i32 %.lcssa to i64
  %42 = getelementptr inbounds nuw [16 x ptr], ptr %40, i64 0, i64 %41
  %43 = load ptr, ptr %42, align 8, !tbaa !61
  %44 = icmp ugt i32 %.val45.lcssa, 402653183
  br i1 %44, label %45, label %If_DsdObjTruth.exit

45:                                               ; preds = %.split
  %46 = load i32, ptr %14, align 4, !tbaa !34
  %47 = getelementptr i8, ptr %1, i64 80
  %.val.i.i = load ptr, ptr %47, align 8, !tbaa !39
  %48 = sext i32 %46 to i64
  %49 = getelementptr inbounds i32, ptr %.val.i.i, i64 %48
  %50 = load i32, ptr %49, align 4, !tbaa !40
  br label %If_DsdObjTruth.exit

If_DsdObjTruth.exit:                              ; preds = %.split, %45
  %51 = phi i32 [ %50, %45 ], [ -1, %.split ]
  %52 = getelementptr inbounds nuw i8, ptr %43, i64 24
  %53 = load ptr, ptr %52, align 8, !tbaa !79
  %54 = getelementptr inbounds nuw i8, ptr %43, i64 8
  %55 = load i32, ptr %54, align 8, !tbaa !58
  %56 = ashr i32 %51, %55
  %57 = sext i32 %56 to i64
  %58 = getelementptr inbounds ptr, ptr %53, i64 %57
  %59 = load ptr, ptr %58, align 8, !tbaa !49
  %60 = load i32, ptr %43, align 8, !tbaa !56
  %61 = getelementptr inbounds nuw i8, ptr %43, i64 12
  %62 = load i32, ptr %61, align 4, !tbaa !59
  %63 = and i32 %62, %51
  %64 = mul nsw i32 %63, %60
  %65 = sext i32 %64 to i64
  %66 = getelementptr inbounds i64, ptr %59, i64 %65
  %67 = call i32 @If_DsdObjFindOrAdd(ptr noundef %0, i32 noundef 6, ptr noundef nonnull %5, i32 noundef %.lcssa, ptr noundef %66)
  br label %68

68:                                               ; preds = %.critedge2.split, %If_DsdObjTruth.exit
  %phi.call = phi i32 [ %67, %If_DsdObjTruth.exit ], [ %39, %.critedge2.split ]
  %69 = load i32, ptr %16, align 4
  %70 = and i32 %69, 256
  %.not41 = icmp eq i32 %70, 0
  br i1 %.not41, label %._crit_edge, label %71

._crit_edge:                                      ; preds = %68
  %.pre66 = sext i32 %phi.call to i64
  br label %79

71:                                               ; preds = %68
  %72 = getelementptr i8, ptr %0, i64 48
  %.val48 = load ptr, ptr %72, align 8, !tbaa !23
  %73 = sext i32 %phi.call to i64
  %74 = getelementptr inbounds ptr, ptr %.val48, i64 %73
  %75 = load ptr, ptr %74, align 8, !tbaa !24
  %76 = getelementptr inbounds nuw i8, ptr %75, i64 4
  %77 = load i32, ptr %76, align 4
  %78 = or i32 %77, 256
  store i32 %78, ptr %76, align 4
  %.pre = load i32, ptr %16, align 4
  br label %79

79:                                               ; preds = %._crit_edge, %71
  %.pre-phi = phi i64 [ %.pre66, %._crit_edge ], [ %73, %71 ]
  %80 = phi i32 [ %69, %._crit_edge ], [ %.pre, %71 ]
  %81 = and i32 %80, 134217216
  %82 = getelementptr i8, ptr %0, i64 48
  %.val = load ptr, ptr %82, align 8, !tbaa !23
  %83 = getelementptr inbounds ptr, ptr %.val, i64 %.pre-phi
  %84 = load ptr, ptr %83, align 8, !tbaa !24
  %85 = getelementptr inbounds nuw i8, ptr %84, i64 4
  %86 = load i32, ptr %85, align 4
  %87 = and i32 %86, -134217217
  %88 = or disjoint i32 %87, %81
  store i32 %88, ptr %85, align 4
  %.val46 = load ptr, ptr %6, align 8, !tbaa !39
  %89 = getelementptr inbounds i32, ptr %.val46, i64 %7
  store i32 %phi.call, ptr %89, align 4, !tbaa !40
  br label %90

90:                                               ; preds = %4, %79
  call void @llvm.lifetime.end.p0(i64 48, ptr nonnull %5) #39
  ret void
}